target datalayout = "e-m:e-p270:32:32-p271:32:32-p272:64:64-i64:64-i128:128-f80:128-n8:16:32:64-S128"
target triple = "x86_64-pc-linux-gnu"

%struct.key_record_t = type { i32, ptr, [16 x i8] }
%struct._packet_info = type { ptr, ptr, i32, i32, %struct.nstime_t, %struct.nstime_t, %struct.nstime_t, i32, ptr, ptr, ptr, ptr, %struct._address, %struct._address, %struct._address, %struct._address, %struct._address, %struct._address, i32, ptr, i32, %struct.anon.1, i32, i32, i32, i32, ptr, i32, ptr, ptr, i16, i16, i32, i32, i16, i32, i32, ptr, ptr, ptr, i8, i8, i16, i16, i16, i32, i16, i16, ptr, ptr, ptr, ptr, ptr, i32 }
%struct.nstime_t = type { i64, i32 }
%struct._address = type { i32, i32, ptr, ptr }
%struct.anon.1 = type { i8, [3 x i8] }
%struct._frame_data = type { i32, i32, i32, i32, i64, ptr, ptr, ptr, i16, i16, %struct.nstime_t, %struct.nstime_t, i32, i32, i8 }
%struct.zbee_nwk_hints_t = type { i32, i32, ptr, ptr, ptr, i32, i64 }
%struct._GSList = type { ptr, ptr }

@.str.44 = private unnamed_addr constant [9 x i8] c"zbee_nwk\00", align 1
@zbee_table_nwk_keyring = external global ptr, align 8

; Function Attrs: nounwind uwtable
define hidden void @zbee_sec_add_key_to_keyring(ptr noundef %0, ptr noundef %1) #0 {
  %3 = alloca ptr, align 8
  %4 = alloca ptr, align 8
  %5 = alloca ptr, align 8
  %6 = alloca %struct.key_record_t, align 8
  %7 = alloca ptr, align 8
  store ptr %0, ptr %3, align 8
  store ptr %1, ptr %4, align 8
  %8 = load ptr, ptr %3, align 8
  %9 = getelementptr inbounds %struct._packet_info, ptr %8, i32 0, i32 8
  %10 = load ptr, ptr %9, align 8
  %11 = getelementptr inbounds %struct._frame_data, ptr %10, i32 0, i32 9
  %12 = load i16, ptr %11, align 2
  %13 = lshr i16 %12, 3
  %14 = and i16 %13, 1
  %15 = zext i16 %14 to i32
  %16 = icmp ne i32 %15, 0
  br i1 %16, label %70, label %17

17:                                               ; preds = %2
  %18 = call ptr @wmem_file_scope()
  %19 = load ptr, ptr %3, align 8
  %20 = call i32 @proto_get_id_by_filter_name(ptr noundef @.str.44)
  %21 = call ptr @p_get_proto_data(ptr noundef %18, ptr noundef %19, i32 noundef %20, i32 noundef 0)
  store ptr %21, ptr %7, align 8
  %22 = icmp ne ptr %21, null
  br i1 %22, label %23, label %70

23:                                               ; preds = %17
  %24 = load ptr, ptr @zbee_table_nwk_keyring, align 8
  %25 = load ptr, ptr %7, align 8
  %26 = getelementptr inbounds %struct.zbee_nwk_hints_t, ptr %25, i32 0, i32 0
  %27 = call ptr @g_hash_table_lookup(ptr noundef %24, ptr noundef %26)
  store ptr %27, ptr %5, align 8
  %28 = load ptr, ptr %5, align 8
  %29 = icmp ne ptr %28, null
  br i1 %29, label %38, label %30

30:                                               ; preds = %23
  %31 = call noalias ptr @g_malloc0(i64 noundef 8) #10
  store ptr %31, ptr %5, align 8
  %32 = load ptr, ptr @zbee_table_nwk_keyring, align 8
  %33 = load ptr, ptr %7, align 8
  %34 = getelementptr inbounds %struct.zbee_nwk_hints_t, ptr %33, i32 0, i32 0
  %35 = call ptr @g_memdup2(ptr noundef %34, i64 noundef 4) #9
  %36 = load ptr, ptr %5, align 8
  %37 = call i32 @g_hash_table_insert(ptr noundef %32, ptr noundef %35, ptr noundef %36)
  br label %38

38:                                               ; preds = %30, %23
  %39 = load ptr, ptr %5, align 8
  %40 = icmp ne ptr %39, null
  br i1 %40, label %41, label %69

41:                                               ; preds = %38
  %42 = load ptr, ptr %5, align 8
  %43 = load ptr, ptr %42, align 8
  %44 = icmp ne ptr %43, null
  br i1 %44, label %45, label %55

45:                                               ; preds = %41
  %46 = load ptr, ptr %5, align 8
  %47 = load ptr, ptr %46, align 8
  %48 = getelementptr inbounds %struct._GSList, ptr %47, i32 0, i32 0
  %49 = load ptr, ptr %48, align 8
  %50 = getelementptr inbounds %struct.key_record_t, ptr %49, i32 0, i32 2
  %51 = getelementptr inbounds [16 x i8], ptr %50, i64 0, i64 0
  %52 = load ptr, ptr %4, align 8
  %53 = call i32 @memcmp(ptr noundef %51, ptr noundef %52, i64 noundef 16) #8
  %54 = icmp ne i32 %53, 0
  br i1 %54, label %55, label %68

55:                                               ; preds = %45, %41
  %56 = load ptr, ptr %3, align 8
  %57 = getelementptr inbounds %struct._packet_info, ptr %56, i32 0, i32 3
  %58 = load i32, ptr %57, align 4
  %59 = getelementptr inbounds %struct.key_record_t, ptr %6, i32 0, i32 0
  store i32 %58, ptr %59, align 8
  %60 = getelementptr inbounds %struct.key_record_t, ptr %6, i32 0, i32 1
  store ptr null, ptr %60, align 8
  %61 = getelementptr inbounds %struct.key_record_t, ptr %6, i32 0, i32 2
  %62 = load ptr, ptr %4, align 8
  call void @llvm.memcpy.p0.p0.i64(ptr align 8 %61, ptr align 1 %62, i64 16, i1 false)
  %63 = load ptr, ptr %5, align 8
  %64 = load ptr, ptr %63, align 8
  %65 = call ptr @g_memdup2(ptr noundef %6, i64 noundef 32) #9
  %66 = call ptr @g_slist_prepend(ptr noundef %64, ptr noundef %65)
  %67 = load ptr, ptr %5, align 8
  store ptr %66, ptr %67, align 8
  br label %68

68:                                               ; preds = %55, %45
  br label %69

69:                                               ; preds = %68, %38
  br label %70

70:                                               ; preds = %69, %17, %2
  ret void
}