; Function Attrs: nounwind uwtable
define hidden void @zbee_sec_add_key_to_keyring(ptr noundef %0, ptr noundef readonly captures(none) %1) local_unnamed_addr #0 {
  %3 = alloca %struct.key_record_t, align 8
  %4 = getelementptr inbounds nuw i8, ptr %0, i64 80
  %5 = load ptr, ptr %4, align 8
  %6 = getelementptr inbounds nuw i8, ptr %5, i64 50
  %7 = load i16, ptr %6, align 2
  %8 = and i16 %7, 8
  %.not = icmp eq i16 %8, 0
  br i1 %.not, label %9, label %32

9:                                                ; preds = %2
  %10 = tail call ptr @wmem_file_scope() #11
  %11 = tail call i32 @proto_get_id_by_filter_name(ptr noundef nonnull @.str.44) #11
  %12 = tail call ptr @p_get_proto_data(ptr noundef %10, ptr noundef nonnull %0, i32 noundef %11, i32 noundef 0) #11
  %.not17 = icmp eq ptr %12, null
  br i1 %.not17, label %32, label %13

13:                                               ; preds = %9
  %14 = load ptr, ptr @zbee_table_nwk_keyring, align 8
  %15 = tail call ptr @g_hash_table_lookup(ptr noundef %14, ptr noundef nonnull %12) #11
  %.not18 = icmp eq ptr %15, null
  br i1 %.not18, label %16, label %.thread

16:                                               ; preds = %13
  %17 = tail call noalias dereferenceable_or_null(8) ptr @g_malloc0(i64 noundef 8) #14
  %18 = load ptr, ptr @zbee_table_nwk_keyring, align 8
  %19 = tail call dereferenceable_or_null(4) ptr @g_memdup2(ptr noundef nonnull %12, i64 noundef 4) #13
  %20 = tail call i32 @g_hash_table_insert(ptr noundef %18, ptr noundef %19, ptr noundef %17) #11
  %.not19 = icmp eq ptr %17, null
  br i1 %.not19, label %32, label %.thread

.thread:                                          ; preds = %13, %16
  %.024 = phi ptr [ %17, %16 ], [ %15, %13 ]
  %21 = load ptr, ptr %.024, align 8
  %.not20 = icmp eq ptr %21, null
  br i1 %.not20, label %25, label %22

22:                                               ; preds = %.thread
  %23 = load ptr, ptr %21, align 8
  %24 = getelementptr inbounds nuw i8, ptr %23, i64 16
  %bcmp = tail call i32 @bcmp(ptr noundef nonnull dereferenceable(16) %24, ptr noundef nonnull dereferenceable(16) %1, i64 16)
  %.not21 = icmp eq i32 %bcmp, 0
  br i1 %.not21, label %32, label %25

25:                                               ; preds = %22, %.thread
  %26 = getelementptr inbounds nuw i8, ptr %0, i64 20
  %27 = load i32, ptr %26, align 4
  store i32 %27, ptr %3, align 8
  %28 = getelementptr inbounds nuw i8, ptr %3, i64 8
  store ptr null, ptr %28, align 8
  %29 = getelementptr inbounds nuw i8, ptr %3, i64 16
  call void @llvm.memcpy.p0.p0.i64(ptr noundef nonnull align 8 dereferenceable(16) %29, ptr noundef nonnull align 1 dereferenceable(16) %1, i64 16, i1 false)
  %30 = call dereferenceable_or_null(32) ptr @g_memdup2(ptr noundef nonnull %3, i64 noundef 32) #13
  %31 = call ptr @g_slist_prepend(ptr noundef %21, ptr noundef %30) #11
  store ptr %31, ptr %.024, align 8
  br label %32

32:                                               ; preds = %16, %25, %22, %9, %2
  ret void
}